target datalayout = "e-m:e-p270:32:32-p271:32:32-p272:64:64-i64:64-i128:128-f80:128-n8:16:32:64-S128"
target triple = "x86_64-pc-linux-gnu"

%struct.dt_imageio_png_t = type { %struct.dt_imageio_module_data_t, i32, i32, ptr, ptr, ptr }
%struct.dt_imageio_module_data_t = type { i32, i32, i32, i32, [128 x i8], i32 }

@.str.8 = private unnamed_addr constant [31 x i8] c"plugins/imageio/format/png/bpp\00", align 1
@.str.9 = private unnamed_addr constant [39 x i8] c"plugins/imageio/format/png/compression\00", align 1

; Function Attrs: nounwind uwtable
define ptr @get_params(ptr noundef %0) #0 {
  %2 = alloca ptr, align 8
  %3 = alloca ptr, align 8
  store ptr %0, ptr %2, align 8, !tbaa !88
  call void @llvm.lifetime.start.p0(i64 8, ptr %3) #13
  %4 = call noalias ptr @calloc(i64 noundef 1, i64 noundef 184) #17
  store ptr %4, ptr %3, align 8, !tbaa !18
  %5 = call i32 @dt_conf_get_int(ptr noundef @.str.8)
  %6 = load ptr, ptr %3, align 8, !tbaa !18
  %7 = getelementptr inbounds nuw %struct.dt_imageio_png_t, ptr %6, i32 0, i32 1
  store i32 %5, ptr %7, align 4, !tbaa !31
  %8 = load ptr, ptr %3, align 8, !tbaa !18
  %9 = getelementptr inbounds nuw %struct.dt_imageio_png_t, ptr %8, i32 0, i32 1
  %10 = load i32, ptr %9, align 4, !tbaa !31
  %11 = icmp ne i32 %10, 8
  br i1 %11, label %12, label %20

12:                                               ; preds = %1
  %13 = load ptr, ptr %3, align 8, !tbaa !18
  %14 = getelementptr inbounds nuw %struct.dt_imageio_png_t, ptr %13, i32 0, i32 1
  %15 = load i32, ptr %14, align 4, !tbaa !31
  %16 = icmp ne i32 %15, 16
  br i1 %16, label %17, label %20

17:                                               ; preds = %12
  %18 = load ptr, ptr %3, align 8, !tbaa !18
  %19 = getelementptr inbounds nuw %struct.dt_imageio_png_t, ptr %18, i32 0, i32 1
  store i32 8, ptr %19, align 4, !tbaa !31
  br label %20

20:                                               ; preds = %17, %12, %1
  %21 = call i32 @dt_conf_key_exists(ptr noundef @.str.9)
  %22 = icmp ne i32 %21, 0
  br i1 %22, label %26, label %23

23:                                               ; preds = %20
  %24 = load ptr, ptr %3, align 8, !tbaa !18
  %25 = getelementptr inbounds nuw %struct.dt_imageio_png_t, ptr %24, i32 0, i32 2
  store i32 5, ptr %25, align 8, !tbaa !30
  br label %43

26:                                               ; preds = %20
  %27 = call i32 @dt_conf_get_int(ptr noundef @.str.9)
  %28 = load ptr, ptr %3, align 8, !tbaa !18
  %29 = getelementptr inbounds nuw %struct.dt_imageio_png_t, ptr %28, i32 0, i32 2
  store i32 %27, ptr %29, align 8, !tbaa !30
  %30 = load ptr, ptr %3, align 8, !tbaa !18
  %31 = getelementptr inbounds nuw %struct.dt_imageio_png_t, ptr %30, i32 0, i32 2
  %32 = load i32, ptr %31, align 8, !tbaa !30
  %33 = icmp slt i32 %32, 0
  br i1 %33, label %39, label %34

34:                                               ; preds = %26
  %35 = load ptr, ptr %3, align 8, !tbaa !18
  %36 = getelementptr inbounds nuw %struct.dt_imageio_png_t, ptr %35, i32 0, i32 2
  %37 = load i32, ptr %36, align 8, !tbaa !30
  %38 = icmp sgt i32 %37, 9
  br i1 %38, label %39, label %42

39:                                               ; preds = %34, %26
  %40 = load ptr, ptr %3, align 8, !tbaa !18
  %41 = getelementptr inbounds nuw %struct.dt_imageio_png_t, ptr %40, i32 0, i32 2
  store i32 5, ptr %41, align 8, !tbaa !30
  br label %42

42:                                               ; preds = %39, %34
  br label %43

43:                                               ; preds = %42, %23
  %44 = load ptr, ptr %3, align 8, !tbaa !18
  call void @llvm.lifetime.end.p0(i64 8, ptr %3) #13
  ret ptr %44
}