; Function Attrs: nounwind uwtable
define noalias noundef ptr @get_params(ptr noundef readnone captures(none) %0) local_unnamed_addr #1 {
  %2 = tail call noalias dereferenceable_or_null(184) ptr @calloc(i64 noundef 1, i64 noundef 184) #24
  %3 = tail call i32 @dt_conf_get_int(ptr noundef nonnull @.str.8) #20
  %4 = getelementptr inbounds nuw i8, ptr %2, i64 148
  store i32 %3, ptr %4, align 4, !tbaa !20
  switch i32 %3, label %5 [
    i32 8, label %6
    i32 16, label %6
  ]

5:                                                ; preds = %1
  store i32 8, ptr %4, align 4, !tbaa !20
  br label %6

6:                                                ; preds = %1, %1, %5
  %7 = tail call i32 @dt_conf_key_exists(ptr noundef nonnull @.str.9) #20
  %.not12 = icmp eq i32 %7, 0
  br i1 %.not12, label %10, label %8

8:                                                ; preds = %6
  %9 = tail call i32 @dt_conf_get_int(ptr noundef nonnull @.str.9) #20
  %or.cond = icmp ugt i32 %9, 9
  %spec.store.select = select i1 %or.cond, i32 5, i32 %9
  br label %10

10:                                               ; preds = %6, %8
  %spec.store.select.sink = phi i32 [ %spec.store.select, %8 ], [ 5, %6 ]
  %11 = getelementptr inbounds nuw i8, ptr %2, i64 152
  store i32 %spec.store.select.sink, ptr %11, align 8
  ret ptr %2
}